(dp0
S'homof'
p1
S'S2648.homo'
p2
sS'i'
p3
S'/cellar/users/f6zheng/Stability_PlosOne/data_demo'
p4
sS'db'
p5
S'/cellar/users/f6zheng/Stability_PlosOne/searchDB/bc-30-sc-20141022-newpds'
p6
sS'l'
p7
S'1EY0.tab'
p8
sS'c3'
p9
I2
sS'c2'
p10
I100
sS'c1'
p11
I20000
sS'nr'
p12
F0.4
sS'he'
p13
S'nr'
p14
s.